; Function Attrs: nounwind sspstrong uwtable
define dso_local i32 @dma_buf_read(ptr noundef %ptr, i64 noundef %len, ptr noundef writeonly %residual, ptr noundef readonly captures(none) %sg, i32 %attrs.coerce) local_unnamed_addr #0 {
entry:
  %size.i = getelementptr inbounds nuw i8, ptr %sg, i64 16
  %0 = load i64, ptr %size.i, align 8
  %cond.i = tail call i64 @llvm.umin.i64(i64 %len, i64 %0)
  %cmp1.not18.i = icmp eq i64 %cond.i, 0
  br i1 %cmp1.not18.i, label %while.end.i, label %while.body.lr.ph.i

while.body.lr.ph.i:                               ; preds = %entry
  %as.i = getelementptr inbounds nuw i8, ptr %sg, i64 32
  br label %while.body.i

while.body.i:                                     ; preds = %while.body.i, %while.body.lr.ph.i
  %len.addr.023.i = phi i64 [ %cond.i, %while.body.lr.ph.i ], [ %sub.i, %while.body.i ]
  %ptr.022.i = phi ptr [ %ptr, %while.body.lr.ph.i ], [ %add.ptr.i, %while.body.i ]
  %xresidual.021.i = phi i64 [ %0, %while.body.lr.ph.i ], [ %sub12.i, %while.body.i ]
  %sg_cur_index.020.i = phi i32 [ 0, %while.body.lr.ph.i ], [ %inc.i, %while.body.i ]
  %res.019.i = phi i32 [ 0, %while.body.lr.ph.i ], [ %or.i, %while.body.i ]
  %1 = load ptr, ptr %sg, align 8
  %inc.i = add i32 %sg_cur_index.020.i, 1
  %idxprom.i = sext i32 %sg_cur_index.020.i to i64
  %arrayidx.i = getelementptr %struct.ScatterGatherEntry, ptr %1, i64 %idxprom.i
  %entry2.sroa.0.0.copyload.i = load i64, ptr %arrayidx.i, align 8
  %entry2.sroa.2.0.arrayidx.sroa_idx.i = getelementptr inbounds nuw i8, ptr %arrayidx.i, i64 8
  %entry2.sroa.2.0.copyload.i = load i64, ptr %entry2.sroa.2.0.arrayidx.sroa_idx.i, align 8
  %cond10.i = tail call i64 @llvm.umin.i64(i64 %len.addr.023.i, i64 %entry2.sroa.2.0.copyload.i)
  %2 = load ptr, ptr %as.i, align 8
  tail call void asm sideeffect "", "~{memory},~{dirflag},~{fpsr},~{flags}"() #10, !srcloc !5
  fence seq_cst
  %call.i.i.i = tail call i32 @address_space_rw(ptr noundef %2, i64 noundef %entry2.sroa.0.0.copyload.i, i32 %attrs.coerce, ptr noundef %ptr.022.i, i64 noundef %cond10.i, i1 noundef zeroext true) #10
  %or.i = or i32 %call.i.i.i, %res.019.i
  %add.ptr.i = getelementptr i8, ptr %ptr.022.i, i64 %cond10.i
  %sub.i = sub i64 %len.addr.023.i, %cond10.i
  %sub12.i = sub i64 %xresidual.021.i, %cond10.i
  %cmp1.not.i = icmp eq i64 %sub.i, 0
  br i1 %cmp1.not.i, label %while.end.i, label %while.body.i, !llvm.loop !10

while.end.i:                                      ; preds = %while.body.i, %entry
  %res.0.lcssa.i = phi i32 [ 0, %entry ], [ %or.i, %while.body.i ]
  %xresidual.0.lcssa.i = phi i64 [ %0, %entry ], [ %sub12.i, %while.body.i ]
  %tobool.not.i = icmp eq ptr %residual, null
  br i1 %tobool.not.i, label %dma_buf_rw.exit, label %if.then.i

if.then.i:                                        ; preds = %while.end.i
  store i64 %xresidual.0.lcssa.i, ptr %residual, align 8
  br label %dma_buf_rw.exit

dma_buf_rw.exit:                                  ; preds = %while.end.i, %if.then.i
  ret i32 %res.0.lcssa.i
}